target datalayout = "e-m:e-p270:32:32-p271:32:32-p272:64:64-i64:64-i128:128-f80:128-n8:16:32:64-S128"
target triple = "x86_64-pc-linux-gnu"

%struct.WMACodecContext = type { ptr, %struct.GetBitContext, %struct.PutBitContext, i32, i32, i32, i32, i32, i32, %struct.VLC, [5 x i32], [5 x [25 x i16]], [5 x i32], i32, [5 x i32], [5 x i32], [5 x [16 x i32]], %struct.VLC, [2 x [16 x i32]], [2 x [16 x i32]], [2 x %struct.VLC], [2 x ptr], [2 x ptr], [2 x ptr], [2 x ptr], i32, i32, i32, i32, i32, i32, i32, i32, i32, i32, i8, [2 x i8], [2 x i32], [12 x i8], [2 x [2048 x float]], [2 x float], [2 x [2048 x float]], [8 x i8], [2 x [2048 x float]], [4096 x float], [5 x ptr], [5 x ptr], [5 x ptr], [8 x i8], [2 x [4096 x float]], [32832 x i8], i32, i32, [2 x i32], [8192 x float], i32, float, [2048 x float], [256 x float], [128 x float], [128 x float], ptr, i32, [12 x i8] }
%struct.GetBitContext = type { ptr, ptr, i32, i32, i32 }
%struct.PutBitContext = type { i32, i32, ptr, ptr, ptr }
%struct.VLC = type { i32, ptr, i32, i32 }

; Function Attrs: cold nounwind optsize uwtable
define internal void @wma_lsp_to_curve_init(ptr noundef %0, i32 noundef %1) #0 {
  %3 = alloca ptr, align 8
  %4 = alloca i32, align 4
  %5 = alloca float, align 4
  %6 = alloca float, align 4
  %7 = alloca float, align 4
  %8 = alloca i32, align 4
  %9 = alloca i32, align 4
  %10 = alloca i32, align 4
  store ptr %0, ptr %3, align 8, !tbaa !29
  store i32 %1, ptr %4, align 4, !tbaa !39
  call void @llvm.lifetime.start.p0(i64 4, ptr %5) #10
  call void @llvm.lifetime.start.p0(i64 4, ptr %6) #10
  call void @llvm.lifetime.start.p0(i64 4, ptr %7) #10
  call void @llvm.lifetime.start.p0(i64 4, ptr %8) #10
  call void @llvm.lifetime.start.p0(i64 4, ptr %9) #10
  call void @llvm.lifetime.start.p0(i64 4, ptr %10) #10
  %11 = load i32, ptr %4, align 4, !tbaa !39
  %12 = sitofp i32 %11 to double
  %13 = fdiv nsz double 0x400921FB54442D18, %12
  %14 = fptrunc nsz double %13 to float
  store float %14, ptr %5, align 4, !tbaa !53
  store i32 0, ptr %8, align 4, !tbaa !39
  br label %15

15:                                               ; preds = %33, %2
  %16 = load i32, ptr %8, align 4, !tbaa !39
  %17 = load i32, ptr %4, align 4, !tbaa !39
  %18 = icmp slt i32 %16, %17
  br i1 %18, label %19, label %36

19:                                               ; preds = %15
  %20 = load float, ptr %5, align 4, !tbaa !53
  %21 = load i32, ptr %8, align 4, !tbaa !39
  %22 = sitofp i32 %21 to float
  %23 = fmul nsz float %20, %22
  %24 = fpext nsz float %23 to double
  %25 = call nsz double @llvm.cos.f64(double %24)
  %26 = fmul nsz double 2.000000e+00, %25
  %27 = fptrunc nsz double %26 to float
  %28 = load ptr, ptr %3, align 8, !tbaa !29
  %29 = getelementptr inbounds nuw %struct.WMACodecContext, ptr %28, i32 0, i32 57
  %30 = load i32, ptr %8, align 4, !tbaa !39
  %31 = sext i32 %30 to i64
  %32 = getelementptr inbounds [2048 x float], ptr %29, i64 0, i64 %31
  store float %27, ptr %32, align 4, !tbaa !53
  br label %33

33:                                               ; preds = %19
  %34 = load i32, ptr %8, align 4, !tbaa !39
  %35 = add nsw i32 %34, 1
  store i32 %35, ptr %8, align 4, !tbaa !39
  br label %15, !llvm.loop !95

36:                                               ; preds = %15
  store i32 0, ptr %8, align 4, !tbaa !39
  br label %37

37:                                               ; preds = %53, %36
  %38 = load i32, ptr %8, align 4, !tbaa !39
  %39 = icmp slt i32 %38, 256
  br i1 %39, label %40, label %56

40:                                               ; preds = %37
  %41 = load i32, ptr %8, align 4, !tbaa !39
  %42 = sub nsw i32 %41, 126
  store i32 %42, ptr %9, align 4, !tbaa !39
  %43 = load i32, ptr %9, align 4, !tbaa !39
  %44 = sitofp i32 %43 to double
  %45 = fmul nsz double %44, -2.500000e-01
  %46 = fptrunc nsz double %45 to float
  %47 = call nsz float @llvm.exp2.f32(float %46)
  %48 = load ptr, ptr %3, align 8, !tbaa !29
  %49 = getelementptr inbounds nuw %struct.WMACodecContext, ptr %48, i32 0, i32 58
  %50 = load i32, ptr %8, align 4, !tbaa !39
  %51 = sext i32 %50 to i64
  %52 = getelementptr inbounds [256 x float], ptr %49, i64 0, i64 %51
  store float %47, ptr %52, align 4, !tbaa !53
  br label %53

53:                                               ; preds = %40
  %54 = load i32, ptr %8, align 4, !tbaa !39
  %55 = add nsw i32 %54, 1
  store i32 %55, ptr %8, align 4, !tbaa !39
  br label %37, !llvm.loop !96

56:                                               ; preds = %37
  store float 1.000000e+00, ptr %7, align 4, !tbaa !53
  store i32 127, ptr %8, align 4, !tbaa !39
  br label %57

57:                                               ; preds = %92, %56
  %58 = load i32, ptr %8, align 4, !tbaa !39
  %59 = icmp sge i32 %58, 0
  br i1 %59, label %60, label %95

60:                                               ; preds = %57
  %61 = load i32, ptr %8, align 4, !tbaa !39
  %62 = add nsw i32 128, %61
  store i32 %62, ptr %10, align 4, !tbaa !39
  %63 = load i32, ptr %10, align 4, !tbaa !39
  %64 = sitofp i32 %63 to float
  %65 = fpext nsz float %64 to double
  %66 = fmul nsz double %65, 3.906250e-03
  %67 = fptrunc nsz double %66 to float
  store float %67, ptr %6, align 4, !tbaa !53
  %68 = load float, ptr %6, align 4, !tbaa !53
  %69 = fpext nsz float %68 to double
  %70 = call nsz double @llvm.sqrt.f64(double %69)
  %71 = call nsz double @llvm.sqrt.f64(double %70)
  %72 = fdiv nsz double 1.000000e+00, %71
  %73 = fptrunc nsz double %72 to float
  store float %73, ptr %6, align 4, !tbaa !53
  %74 = load float, ptr %6, align 4, !tbaa !53
  %75 = load float, ptr %7, align 4, !tbaa !53
  %76 = fneg nsz float %75
  %77 = call nsz float @llvm.fmuladd.f32(float 2.000000e+00, float %74, float %76)
  %78 = load ptr, ptr %3, align 8, !tbaa !29
  %79 = getelementptr inbounds nuw %struct.WMACodecContext, ptr %78, i32 0, i32 59
  %80 = load i32, ptr %8, align 4, !tbaa !39
  %81 = sext i32 %80 to i64
  %82 = getelementptr inbounds [128 x float], ptr %79, i64 0, i64 %81
  store float %77, ptr %82, align 4, !tbaa !53
  %83 = load float, ptr %7, align 4, !tbaa !53
  %84 = load float, ptr %6, align 4, !tbaa !53
  %85 = fsub nsz float %83, %84
  %86 = load ptr, ptr %3, align 8, !tbaa !29
  %87 = getelementptr inbounds nuw %struct.WMACodecContext, ptr %86, i32 0, i32 60
  %88 = load i32, ptr %8, align 4, !tbaa !39
  %89 = sext i32 %88 to i64
  %90 = getelementptr inbounds [128 x float], ptr %87, i64 0, i64 %89
  store float %85, ptr %90, align 4, !tbaa !53
  %91 = load float, ptr %6, align 4, !tbaa !53
  store float %91, ptr %7, align 4, !tbaa !53
  br label %92

92:                                               ; preds = %60
  %93 = load i32, ptr %8, align 4, !tbaa !39
  %94 = add nsw i32 %93, -1
  store i32 %94, ptr %8, align 4, !tbaa !39
  br label %57, !llvm.loop !97

95:                                               ; preds = %57
  call void @llvm.lifetime.end.p0(i64 4, ptr %10) #10
  call void @llvm.lifetime.end.p0(i64 4, ptr %9) #10
  call void @llvm.lifetime.end.p0(i64 4, ptr %8) #10
  call void @llvm.lifetime.end.p0(i64 4, ptr %7) #10
  call void @llvm.lifetime.end.p0(i64 4, ptr %6) #10
  call void @llvm.lifetime.end.p0(i64 4, ptr %5) #10
  ret void
}