; Function Attrs: cold nofree norecurse nosync nounwind optsize memory(argmem: write) uwtable
define internal fastcc void @wma_lsp_to_curve_init(ptr noundef writeonly captures(none) %0, i32 noundef %1) unnamed_addr #5 {
  %3 = sitofp i32 %1 to double
  %4 = fdiv nsz double 0x400921FB54442D18, %3
  %5 = fptrunc nsz double %4 to float
  %6 = icmp sgt i32 %1, 0
  br i1 %6, label %.lr.ph, label %.preheader28

.lr.ph:                                           ; preds = %2
  %7 = getelementptr inbounds nuw i8, ptr %0, i64 165304
  %wide.trip.count = zext nneg i32 %1 to i64
  br label %9

.preheader28:                                     ; preds = %9, %2
  %8 = getelementptr inbounds nuw i8, ptr %0, i64 173496
  br label %20

9:                                                ; preds = %.lr.ph, %9
  %indvars.iv = phi i64 [ 0, %.lr.ph ], [ %indvars.iv.next, %9 ]
  %10 = trunc nuw nsw i64 %indvars.iv to i32
  %11 = uitofp nneg i32 %10 to float
  %12 = fmul nsz float %5, %11
  %13 = fpext nsz float %12 to double
  %14 = tail call nsz double @llvm.cos.f64(double %13)
  %15 = fmul nsz double %14, 2.000000e+00
  %16 = fptrunc nsz double %15 to float
  %17 = getelementptr inbounds nuw [2048 x float], ptr %7, i64 0, i64 %indvars.iv
  store float %16, ptr %17, align 4, !tbaa !48
  %indvars.iv.next = add nuw nsw i64 %indvars.iv, 1
  %exitcond.not = icmp eq i64 %indvars.iv.next, %wide.trip.count
  br i1 %exitcond.not, label %.preheader28, label %9, !llvm.loop !91

.preheader:                                       ; preds = %20
  %18 = getelementptr inbounds nuw i8, ptr %0, i64 174520
  %19 = getelementptr inbounds nuw i8, ptr %0, i64 175032
  br label %28

20:                                               ; preds = %.preheader28, %20
  %indvars.iv34 = phi i64 [ 0, %.preheader28 ], [ %indvars.iv.next35, %20 ]
  %21 = trunc i64 %indvars.iv34 to i32
  %22 = add i32 %21, -126
  %23 = sitofp i32 %22 to double
  %24 = fmul nsz double %23, -2.500000e-01
  %25 = fptrunc nsz double %24 to float
  %26 = tail call nsz float @llvm.exp2.f32(float %25)
  %27 = getelementptr inbounds nuw [256 x float], ptr %8, i64 0, i64 %indvars.iv34
  store float %26, ptr %27, align 4, !tbaa !48
  %indvars.iv.next35 = add nuw nsw i64 %indvars.iv34, 1
  %exitcond37.not = icmp eq i64 %indvars.iv.next35, 256
  br i1 %exitcond37.not, label %.preheader, label %20, !llvm.loop !92

28:                                               ; preds = %.preheader, %28
  %indvars.iv38 = phi i64 [ 127, %.preheader ], [ %indvars.iv.next39, %28 ]
  %.032 = phi float [ 1.000000e+00, %.preheader ], [ %37, %28 ]
  %29 = trunc i64 %indvars.iv38 to i32
  %30 = add i32 %29, 128
  %31 = uitofp nneg i32 %30 to float
  %32 = fmul nsz float %31, 3.906250e-03
  %33 = fpext nsz float %32 to double
  %34 = tail call nsz double @llvm.sqrt.f64(double %33)
  %35 = tail call nsz double @llvm.sqrt.f64(double %34)
  %36 = fdiv nsz double 1.000000e+00, %35
  %37 = fptrunc nsz double %36 to float
  %38 = fneg nsz float %.032
  %39 = tail call nsz float @llvm.fmuladd.f32(float %37, float 2.000000e+00, float %38)
  %40 = getelementptr inbounds nuw [128 x float], ptr %18, i64 0, i64 %indvars.iv38
  store float %39, ptr %40, align 4, !tbaa !48
  %41 = fsub nsz float %.032, %37
  %42 = getelementptr inbounds nuw [128 x float], ptr %19, i64 0, i64 %indvars.iv38
  store float %41, ptr %42, align 4, !tbaa !48
  %indvars.iv.next39 = add nsw i64 %indvars.iv38, -1
  %.not = icmp eq i64 %indvars.iv38, 0
  br i1 %.not, label %43, label %28, !llvm.loop !93

43:                                               ; preds = %28
  ret void
}